; ModuleID = '4/2132.c'
source_filename = "4/2132.c"
target datalayout = "e-m:e-p270:32:32-p271:32:32-p272:64:64-i64:64-f80:128-n8:16:32:64-S128"
target triple = "x86_64-pc-linux-gnu"

@h = common dso_local global i32 0, align 4
@l = common dso_local global i32 0, align 4
@.str = private unnamed_addr constant [4 x i8] c"%d\0A\00", align 1
@p = common dso_local global [100 x i32]* null, align 8
@.str.1 = private unnamed_addr constant [6 x i8] c"%d %d\00", align 1
@.str.2 = private unnamed_addr constant [3 x i8] c"%d\00", align 1

; Function Attrs: noinline nounwind uwtable
define dso_local void @shuchu(i32 %0) #0 {
  %2 = alloca i32, align 4
  %3 = alloca i32, align 4
  %4 = alloca i32, align 4
  %5 = alloca i32, align 4
  store i32 %0, i32* %2, align 4
  store i32 0, i32* %5, align 4
  store i32 0, i32* %3, align 4
  %6 = load i32, i32* %2, align 4
  store i32 %6, i32* %4, align 4
  br label %7

7:                                                ; preds = %34, %1
  %8 = load i32, i32* %3, align 4
  %9 = load i32, i32* @h, align 4
  %10 = icmp slt i32 %8, %9
  br i1 %10, label %11, label %37

11:                                               ; preds = %7
  %12 = load i32, i32* %4, align 4
  %13 = icmp sge i32 %12, 0
  br i1 %13, label %14, label %29

14:                                               ; preds = %11
  %15 = load i32, i32* %4, align 4
  %16 = load i32, i32* @l, align 4
  %17 = icmp slt i32 %15, %16
  br i1 %17, label %18, label %29

18:                                               ; preds = %14
  %19 = load [100 x i32]*, [100 x i32]** @p, align 8
  %20 = load i32, i32* %3, align 4
  %21 = sext i32 %20 to i64
  %22 = getelementptr inbounds [100 x i32], [100 x i32]* %19, i64 %21
  %23 = getelementptr inbounds [100 x i32], [100 x i32]* %22, i64 0, i64 0
  %24 = load i32, i32* %4, align 4
  %25 = sext i32 %24 to i64
  %26 = getelementptr inbounds i32, i32* %23, i64 %25
  %27 = load i32, i32* %26, align 4
  %28 = call i32 (i8*, ...) @printf(i8* getelementptr inbounds ([4 x i8], [4 x i8]* @.str, i64 0, i64 0), i32 %27)
  br label %29

29:                                               ; preds = %18, %14, %11
  %30 = load i32, i32* %3, align 4
  %31 = add nsw i32 %30, 1
  store i32 %31, i32* %3, align 4
  %32 = load i32, i32* %4, align 4
  %33 = sub nsw i32 %32, 1
  store i32 %33, i32* %4, align 4
  br label %34

34:                                               ; preds = %29
  %35 = load i32, i32* %5, align 4
  %36 = add nsw i32 %35, 1
  store i32 %36, i32* %5, align 4
  br label %7

37:                                               ; preds = %7
  ret void
}

declare dso_local i32 @printf(i8*, ...) #1

; Function Attrs: noinline nounwind uwtable
define dso_local i32 @main() #0 {
  %1 = alloca i32, align 4
  %2 = alloca i32, align 4
  %3 = alloca i32, align 4
  store i32 0, i32* %1, align 4
  %4 = call i32 (i8*, ...) @__isoc99_scanf(i8* getelementptr inbounds ([6 x i8], [6 x i8]* @.str.1, i64 0, i64 0), i32* @h, i32* @l)
  %5 = load i32, i32* @h, align 4
  %6 = mul nsw i32 %5, 100
  %7 = sext i32 %6 to i64
  %8 = mul i64 %7, 4
  %9 = call noalias i8* @malloc(i64 %8) #3
  %10 = bitcast i8* %9 to [100 x i32]*
  store [100 x i32]* %10, [100 x i32]** @p, align 8
  store i32 0, i32* %2, align 4
  br label %11

11:                                               ; preds = %34, %0
  %12 = load i32, i32* %2, align 4
  %13 = load i32, i32* @h, align 4
  %14 = icmp slt i32 %12, %13
  br i1 %14, label %15, label %37

15:                                               ; preds = %11
  store i32 0, i32* %3, align 4
  br label %16

16:                                               ; preds = %30, %15
  %17 = load i32, i32* %3, align 4
  %18 = load i32, i32* @l, align 4
  %19 = icmp slt i32 %17, %18
  br i1 %19, label %20, label %33

20:                                               ; preds = %16
  %21 = load [100 x i32]*, [100 x i32]** @p, align 8
  %22 = load i32, i32* %2, align 4
  %23 = sext i32 %22 to i64
  %24 = getelementptr inbounds [100 x i32], [100 x i32]* %21, i64 %23
  %25 = getelementptr inbounds [100 x i32], [100 x i32]* %24, i64 0, i64 0
  %26 = load i32, i32* %3, align 4
  %27 = sext i32 %26 to i64
  %28 = getelementptr inbounds i32, i32* %25, i64 %27
  %29 = call i32 (i8*, ...) @__isoc99_scanf(i8* getelementptr inbounds ([3 x i8], [3 x i8]* @.str.2, i64 0, i64 0), i32* %28)
  br label %30

30:                                               ; preds = %20
  %31 = load i32, i32* %3, align 4
  %32 = add nsw i32 %31, 1
  store i32 %32, i32* %3, align 4
  br label %16

33:                                               ; preds = %16
  br label %34

34:                                               ; preds = %33
  %35 = load i32, i32* %2, align 4
  %36 = add nsw i32 %35, 1
  store i32 %36, i32* %2, align 4
  br label %11

37:                                               ; preds = %11
  store i32 0, i32* %2, align 4
  br label %38

38:                                               ; preds = %47, %37
  %39 = load i32, i32* %2, align 4
  %40 = load i32, i32* @h, align 4
  %41 = load i32, i32* @l, align 4
  %42 = add nsw i32 %40, %41
  %43 = sub nsw i32 %42, 1
  %44 = icmp slt i32 %39, %43
  br i1 %44, label %45, label %50

45:                                               ; preds = %38
  %46 = load i32, i32* %2, align 4
  call void @shuchu(i32 %46)
  br label %47

47:                                               ; preds = %45
  %48 = load i32, i32* %2, align 4
  %49 = add nsw i32 %48, 1
  store i32 %49, i32* %2, align 4
  br label %38

50:                                               ; preds = %38
  %51 = load i32, i32* %1, align 4
  ret i32 %51
}

declare dso_local i32 @__isoc99_scanf(i8*, ...) #1

; Function Attrs: nounwind
declare dso_local noalias i8* @malloc(i64) #2


!llvm.module.flags = !{!0}
!llvm.ident = !{!1}

!0 = !{i32 1, !"wchar_size", i32 4}
!1 = !{!"clang version 10.0.0-4ubuntu1 "}
